; Function Attrs: null_pointer_is_valid sspstrong uwtable
define hidden void @rtt_destroy_unack_list(ptr noundef captures(none) %0) local_unnamed_addr #0 {
  %2 = load ptr, ptr %0, align 8
  %.not5 = icmp eq ptr %2, null
  br i1 %.not5, label %._crit_edge, label %.lr.ph

.lr.ph:                                           ; preds = %1, %.lr.ph
  %3 = phi ptr [ %5, %.lr.ph ], [ %2, %1 ]
  %4 = load ptr, ptr %3, align 8
  store ptr %4, ptr %0, align 8
  tail call void @g_free(ptr noundef nonnull %3)
  %5 = load ptr, ptr %0, align 8
  %.not = icmp eq ptr %5, null
  br i1 %.not, label %._crit_edge, label %.lr.ph, !llvm.loop !17

._crit_edge:                                      ; preds = %.lr.ph, %1
  ret void
}